target datalayout = "e-m:e-p270:32:32-p271:32:32-p272:64:64-i64:64-i128:128-f80:128-n8:16:32:64-S128"
target triple = "x86_64-pc-linux-gnu"

%"struct.open3d::core::TensorRef" = type { ptr, i64, i64, [5 x i64], [5 x i64] }
%"class.open3d::core::Indexer" = type <{ i64, i64, [5 x %"struct.open3d::core::TensorRef"], [2 x %"struct.open3d::core::TensorRef"], [5 x i8], [2 x i8], i8, [5 x i64], [5 x i64], i64, i8, i8, [6 x i8] }>

; Function Attrs: mustprogress nounwind ssp uwtable
define void @_ZN6open3d4core7Indexer20UpdatePrimaryStridesEv(ptr noundef nonnull align 8 dereferenceable(842) %0) #4 align 2 {
  %2 = alloca ptr, align 8
  %3 = alloca i64, align 8
  %4 = alloca i64, align 8
  store ptr %0, ptr %2, align 8, !tbaa !4
  %5 = load ptr, ptr %2, align 8
  call void @llvm.lifetime.start.p0(i64 8, ptr %3) #27
  store i64 1, ptr %3, align 8, !tbaa !32
  call void @llvm.lifetime.start.p0(i64 8, ptr %4) #27
  %6 = getelementptr inbounds nuw %"class.open3d::core::Indexer", ptr %5, i32 0, i32 9
  %7 = load i64, ptr %6, align 8, !tbaa !29
  %8 = sub nsw i64 %7, 1
  store i64 %8, ptr %4, align 8, !tbaa !32
  br label %9

9:                                                ; preds = %34, %1
  %10 = load i64, ptr %4, align 8, !tbaa !32
  %11 = icmp sge i64 %10, 0
  br i1 %11, label %13, label %12

12:                                               ; preds = %9
  call void @llvm.lifetime.end.p0(i64 8, ptr %4) #27
  br label %37

13:                                               ; preds = %9
  %14 = load i64, ptr %3, align 8, !tbaa !32
  %15 = getelementptr inbounds nuw %"class.open3d::core::Indexer", ptr %5, i32 0, i32 8
  %16 = load i64, ptr %4, align 8, !tbaa !32
  %17 = getelementptr inbounds [5 x i64], ptr %15, i64 0, i64 %16
  store i64 %14, ptr %17, align 8, !tbaa !32
  %18 = getelementptr inbounds nuw %"class.open3d::core::Indexer", ptr %5, i32 0, i32 7
  %19 = load i64, ptr %4, align 8, !tbaa !32
  %20 = getelementptr inbounds [5 x i64], ptr %18, i64 0, i64 %19
  %21 = load i64, ptr %20, align 8, !tbaa !32
  %22 = icmp sgt i64 %21, 1
  br i1 %22, label %23, label %30

23:                                               ; preds = %13
  %24 = load i64, ptr %3, align 8, !tbaa !32
  %25 = getelementptr inbounds nuw %"class.open3d::core::Indexer", ptr %5, i32 0, i32 7
  %26 = load i64, ptr %4, align 8, !tbaa !32
  %27 = getelementptr inbounds [5 x i64], ptr %25, i64 0, i64 %26
  %28 = load i64, ptr %27, align 8, !tbaa !32
  %29 = mul nsw i64 %24, %28
  br label %32

30:                                               ; preds = %13
  %31 = load i64, ptr %3, align 8, !tbaa !32
  br label %32

32:                                               ; preds = %30, %23
  %33 = phi i64 [ %29, %23 ], [ %31, %30 ]
  store i64 %33, ptr %3, align 8, !tbaa !32
  br label %34

34:                                               ; preds = %32
  %35 = load i64, ptr %4, align 8, !tbaa !32
  %36 = add nsw i64 %35, -1
  store i64 %36, ptr %4, align 8, !tbaa !32
  br label %9, !llvm.loop !139

37:                                               ; preds = %12
  call void @llvm.lifetime.end.p0(i64 8, ptr %3) #27
  ret void
}