; Function Attrs: mustprogress nofree norecurse nosync nounwind ssp memory(argmem: readwrite) uwtable
define void @_ZN6open3d4core7Indexer20UpdatePrimaryStridesEv(ptr noundef nonnull align 8 captures(none) dereferenceable(842) %0) local_unnamed_addr #14 align 2 {
  %2 = getelementptr inbounds nuw i8, ptr %0, i64 832
  %3 = load i64, ptr %2, align 8, !tbaa !31
  %4 = icmp sgt i64 %3, 0
  br i1 %4, label %.lr.ph, label %._crit_edge

.lr.ph:                                           ; preds = %1
  %5 = getelementptr inbounds nuw i8, ptr %0, i64 792
  %6 = getelementptr inbounds nuw i8, ptr %0, i64 752
  br label %7

._crit_edge:                                      ; preds = %7, %1
  ret void

7:                                                ; preds = %.lr.ph, %7
  %.0.in11 = phi i64 [ %3, %.lr.ph ], [ %.0, %7 ]
  %.0810 = phi i64 [ 1, %.lr.ph ], [ %12, %7 ]
  %.0 = add nsw i64 %.0.in11, -1
  %8 = getelementptr inbounds nuw [5 x i64], ptr %5, i64 0, i64 %.0
  store i64 %.0810, ptr %8, align 8, !tbaa !42
  %9 = getelementptr inbounds nuw [5 x i64], ptr %6, i64 0, i64 %.0
  %10 = load i64, ptr %9, align 8, !tbaa !42
  %11 = tail call i64 @llvm.smax.i64(i64 %10, i64 1)
  %12 = mul nuw nsw i64 %11, %.0810
  %13 = icmp samesign ugt i64 %.0.in11, 1
  br i1 %13, label %7, label %._crit_edge, !llvm.loop !78
}